target datalayout = "e-m:e-p270:32:32-p271:32:32-p272:64:64-i64:64-i128:128-f80:128-n8:16:32:64-S128"
target triple = "x86_64-pc-linux-gnu"

%struct._zval_struct = type { %union._zend_value, %union.anon, %union.anon.2 }
%union._zend_value = type { i64 }
%union.anon = type { i32 }
%union.anon.2 = type { i32 }
%struct._zend_array = type { %struct._zend_refcounted_h, %union.anon.5, i32, %union.anon.7, i32, i32, i32, i32, i64, ptr }
%struct._zend_refcounted_h = type { i32, %union.anon.3 }
%union.anon.3 = type { i32 }
%union.anon.5 = type { i32 }
%union.anon.7 = type { ptr }
%struct._zend_object = type { %struct._zend_refcounted_h, i32, ptr, ptr, ptr, [1 x %struct._zval_struct] }
%struct._zend_class_entry = type { i8, ptr, %union.anon.4, i32, i32, i32, i32, ptr, ptr, ptr, %struct._zend_array, %struct._zend_array, %struct._zend_array, ptr, ptr, ptr, ptr, ptr, ptr, ptr, ptr, ptr, ptr, ptr, ptr, ptr, ptr, ptr, ptr, ptr, ptr, ptr, %union.anon.8, ptr, ptr, ptr, ptr, i32, i32, %union.anon.9, ptr, ptr, ptr, ptr, i32, ptr, ptr, %union.anon.10 }
%union.anon.4 = type { ptr }
%union.anon.8 = type { ptr }
%union.anon.9 = type { ptr }
%union.anon.10 = type { %struct.anon.11 }
%struct.anon.11 = type { ptr, i32, i32 }
%struct._zend_class_iterator_funcs = type { ptr, ptr, ptr, ptr, ptr, ptr }
%struct._zend_user_iterator = type { %struct._zend_object_iterator, ptr, %struct._zval_struct }
%struct._zend_object_iterator = type { %struct._zend_object, %struct._zval_struct, ptr, i64 }

; Function Attrs: nounwind uwtable
define void @zend_user_it_invalidate_current(ptr noundef %0) #0 {
  %2 = alloca ptr, align 8
  %3 = alloca ptr, align 8
  %4 = alloca ptr, align 8
  store ptr %0, ptr %3, align 8
  %5 = load ptr, ptr %3, align 8
  store ptr %5, ptr %4, align 8
  %6 = load ptr, ptr %4, align 8
  %7 = getelementptr inbounds %struct._zend_user_iterator, ptr %6, i32 0, i32 2
  store ptr %7, ptr %2, align 8
  %8 = load ptr, ptr %2, align 8
  %9 = getelementptr inbounds %struct._zval_struct, ptr %8, i32 0, i32 1
  %10 = load i8, ptr %9, align 8
  %11 = zext i8 %10 to i32
  %12 = icmp eq i32 %11, 0
  br i1 %12, label %21, label %13

13:                                               ; preds = %1
  %14 = load ptr, ptr %4, align 8
  %15 = getelementptr inbounds %struct._zend_user_iterator, ptr %14, i32 0, i32 2
  call void @zval_ptr_dtor(ptr noundef %15)
  br label %16

16:                                               ; preds = %13
  %17 = load ptr, ptr %4, align 8
  %18 = getelementptr inbounds %struct._zend_user_iterator, ptr %17, i32 0, i32 2
  %19 = getelementptr inbounds %struct._zval_struct, ptr %18, i32 0, i32 1
  store i32 0, ptr %19, align 8
  br label %20

20:                                               ; preds = %16
  br label %21

21:                                               ; preds = %20, %1
  ret void
}

; Function Attrs: nounwind uwtable
define void @zend_user_it_move_forward(ptr noundef %0) #0 {
  %2 = alloca ptr, align 8
  %3 = alloca ptr, align 8
  %4 = alloca ptr, align 8
  %5 = alloca i32, align 4
  %6 = alloca ptr, align 8
  %7 = alloca ptr, align 8
  %8 = alloca ptr, align 8
  %9 = alloca ptr, align 8
  %10 = alloca ptr, align 8
  %11 = alloca ptr, align 8
  %12 = alloca ptr, align 8
  store ptr %0, ptr %10, align 8
  %13 = load ptr, ptr %10, align 8
  store ptr %13, ptr %11, align 8
  %14 = load ptr, ptr %11, align 8
  %15 = getelementptr inbounds %struct._zend_user_iterator, ptr %14, i32 0, i32 0
  %16 = getelementptr inbounds %struct._zend_object_iterator, ptr %15, i32 0, i32 1
  store ptr %16, ptr %12, align 8
  %17 = load ptr, ptr %10, align 8
  call void @zend_user_it_invalidate_current(ptr noundef %17)
  %18 = load ptr, ptr %11, align 8
  %19 = getelementptr inbounds %struct._zend_user_iterator, ptr %18, i32 0, i32 1
  %20 = load ptr, ptr %19, align 8
  %21 = getelementptr inbounds %struct._zend_class_entry, ptr %20, i32 0, i32 30
  %22 = load ptr, ptr %21, align 8
  %23 = getelementptr inbounds %struct._zend_class_iterator_funcs, ptr %22, i32 0, i32 4
  %24 = load ptr, ptr %23, align 8
  %25 = load ptr, ptr %12, align 8
  %26 = getelementptr inbounds %struct._zval_struct, ptr %25, i32 0, i32 0
  %27 = load ptr, ptr %26, align 8
  store ptr %24, ptr %7, align 8
  store ptr %27, ptr %8, align 8
  store ptr null, ptr %9, align 8
  %28 = load ptr, ptr %7, align 8
  %29 = load ptr, ptr %8, align 8
  %30 = load ptr, ptr %9, align 8
  store ptr %28, ptr %2, align 8
  store ptr %29, ptr %3, align 8
  store ptr %30, ptr %4, align 8
  store i32 0, ptr %5, align 4
  store ptr null, ptr %6, align 8
  %31 = load ptr, ptr %2, align 8
  %32 = load ptr, ptr %3, align 8
  %33 = load ptr, ptr %3, align 8
  %34 = getelementptr inbounds %struct._zend_object, ptr %33, i32 0, i32 2
  %35 = load ptr, ptr %34, align 8
  %36 = load ptr, ptr %4, align 8
  %37 = load i32, ptr %5, align 4
  %38 = load ptr, ptr %6, align 8
  call void @zend_call_known_function(ptr noundef %31, ptr noundef %32, ptr noundef %35, ptr noundef %36, i32 noundef %37, ptr noundef %38, ptr noundef null) #10
  ret void
}