; Function Attrs: nounwind uwtable
define void @zend_user_it_move_forward(ptr noundef %0) #0 {
  %2 = getelementptr inbounds i8, ptr %0, i64 104
  %3 = load i8, ptr %2, align 8
  %4 = icmp eq i8 %3, 0
  br i1 %4, label %zend_user_it_invalidate_current.exit, label %5

5:                                                ; preds = %1
  %6 = getelementptr inbounds i8, ptr %0, i64 96
  tail call void @zval_ptr_dtor(ptr noundef nonnull %6) #9
  store i32 0, ptr %2, align 8
  br label %zend_user_it_invalidate_current.exit

zend_user_it_invalidate_current.exit:             ; preds = %1, %5
  %7 = getelementptr inbounds i8, ptr %0, i64 56
  %8 = getelementptr inbounds i8, ptr %0, i64 88
  %9 = load ptr, ptr %8, align 8
  %10 = getelementptr inbounds i8, ptr %9, i64 368
  %11 = load ptr, ptr %10, align 8
  %12 = getelementptr inbounds i8, ptr %11, i64 32
  %13 = load ptr, ptr %12, align 8
  %14 = load ptr, ptr %7, align 8
  %15 = getelementptr inbounds i8, ptr %14, i64 16
  %16 = load ptr, ptr %15, align 8
  tail call void @zend_call_known_function(ptr noundef %13, ptr noundef %14, ptr noundef %16, ptr noundef null, i32 noundef 0, ptr noundef null, ptr noundef null) #9
  ret void
}